	.file	"gdt.cpp"
	.text
.Ltext0:
	.section	.text.unlikely,"ax",@progbits
.LCOLDB0:
	.text
.LHOTB0:
	.align 16
	.section	.text.unlikely
.Ltext_cold0:
	.text
	.globl	_Z8init_gdtv
	.type	_Z8init_gdtv, @function
_Z8init_gdtv:
.LFB0:
	.file 1 "arch/i386/gdt.cpp"
	.loc 1 22 0
	.cfi_startproc
	pushl	%edi
	.cfi_def_cfa_offset 8
	.cfi_offset 7, -8
	.loc 1 23 0
	movl	$_ZL7entries, %edx
	.loc 1 22 0
	pushl	%ebx
	.cfi_def_cfa_offset 12
	.cfi_offset 3, -12
	.loc 1 23 0
	xorl	%eax, %eax
	movl	%edx, %edi
.LBB30:
.LBB31:
	.loc 1 41 0
	movl	$-1, %ebx
.LBE31:
.LBE30:
	.loc 1 23 0
	movl	$12, %ecx
	.loc 1 22 0
	subl	$16, %esp
	.cfi_def_cfa_offset 28
.LBB34:
.LBB35:
	.loc 1 41 0
	movl	$-1, %edx
.LBE35:
.LBE34:
	.loc 1 23 0
	rep stosl
.LVL0:
.LBB38:
.LBB39:
	.loc 1 41 0
	movl	$-1, %ecx
.LBE39:
.LBE38:
.LBB42:
.LBB32:
	movw	%bx, _ZL7entries+24
.LBE32:
.LBE42:
.LBB43:
.LBB44:
	.loc 1 50 0
	movl	$_ZL9tss_entry, %ebx
.LBE44:
.LBE43:
.LBB67:
.LBB40:
	.loc 1 41 0
	movw	%cx, _ZL7entries+16
.LBE40:
.LBE67:
.LBB68:
.LBB61:
.LBB45:
.LBB46:
	.loc 1 38 0
	movl	%ebx, %ecx
.LBE46:
.LBE45:
.LBE61:
.LBE68:
.LBB69:
.LBB36:
	.loc 1 41 0
	movw	%dx, _ZL7entries+8
.LBE36:
.LBE69:
.LBB70:
.LBB62:
.LBB54:
.LBB47:
	.loc 1 38 0
	shrl	$16, %ecx
.LBE47:
.LBE54:
.LBE62:
.LBE70:
.LBB71:
.LBB72:
	.loc 1 41 0
	movl	$-1, %edi
.LBE72:
.LBE71:
.LBB75:
.LBB63:
	.loc 1 51 0
	movl	$_ZL9tss_entry+104, %edx
.LBB55:
.LBB48:
	.loc 1 38 0
	movb	%cl, _ZL7entries+44
	.loc 1 39 0
	movl	%ebx, %ecx
.LBE48:
.LBE55:
.LBE63:
.LBE75:
.LBB76:
.LBB73:
	.loc 1 41 0
	movw	%di, _ZL7entries+32
.LBE73:
.LBE76:
.LBB77:
.LBB64:
.LBB56:
.LBB49:
	.loc 1 39 0
	shrl	$24, %ecx
	.loc 1 41 0
	movw	%dx, _ZL7entries+40
.LBE49:
.LBE56:
	.loc 1 54 0
	movl	%ebx, %edi
.LBB57:
.LBB50:
	.loc 1 39 0
	movb	%cl, _ZL7entries+47
	.loc 1 42 0
	shrl	$16, %edx
.LBE50:
.LBE57:
	.loc 1 54 0
	movl	$26, %ecx
	rep stosl
.LBB58:
.LBB51:
	.loc 1 42 0
	andl	$15, %edx
.LBE51:
.LBE58:
.LBE64:
.LBE77:
.LBB78:
.LBB79:
	.loc 1 62 0
	movl	$47, %eax
.LBE79:
.LBE78:
.LBB83:
.LBB65:
.LBB59:
.LBB52:
	.loc 1 37 0
	movw	%bx, _ZL7entries+42
	.loc 1 42 0
	movb	%dl, _ZL7entries+46
.LBE52:
.LBE59:
.LBE65:
.LBE83:
.LBB84:
.LBB80:
	.loc 1 62 0
	movw	%ax, _ZL7gdt_ptr
.LBE80:
.LBE84:
.LBB85:
.LBB37:
	.loc 1 43 0
	movb	$-49, _ZL7entries+14
	.loc 1 44 0
	movb	$-102, _ZL7entries+13
.LVL1:
.LBE37:
.LBE85:
.LBB86:
.LBB41:
	.loc 1 43 0
	movb	$-49, _ZL7entries+22
	.loc 1 44 0
	movb	$-110, _ZL7entries+21
.LVL2:
.LBE41:
.LBE86:
.LBB87:
.LBB33:
	.loc 1 43 0
	movb	$-49, _ZL7entries+30
	.loc 1 44 0
	movb	$-6, _ZL7entries+29
.LVL3:
.LBE33:
.LBE87:
.LBB88:
.LBB74:
	.loc 1 43 0
	movb	$-49, _ZL7entries+38
	.loc 1 44 0
	movb	$-14, _ZL7entries+37
.LVL4:
.LBE74:
.LBE88:
.LBB89:
.LBB66:
.LBB60:
.LBB53:
	movb	$-23, _ZL7entries+45
.LVL5:
.LBE53:
.LBE60:
	.loc 1 55 0
	movl	$16, _ZL9tss_entry+8
	.loc 1 56 0
	movl	$-1069547776, _ZL9tss_entry+4
	.loc 1 57 0
	movl	$11, _ZL9tss_entry+76
	.loc 1 58 0
	movl	$19, _ZL9tss_entry+92
	movl	$19, _ZL9tss_entry+88
	movl	$19, _ZL9tss_entry+72
	movl	$19, _ZL9tss_entry+84
	movl	$19, _ZL9tss_entry+80
.LVL6:
.LBE66:
.LBE89:
.LBB90:
.LBB81:
	.loc 1 63 0
	movl	$_ZL7entries, _ZL7gdt_ptr+2
	.loc 1 64 0
	pushl	$_ZL7gdt_ptr
	.cfi_def_cfa_offset 32
	call	GDT_Flush
.LVL7:
.LBE81:
.LBE90:
	.loc 1 33 0
	addl	$20, %esp
	.cfi_def_cfa_offset 12
	popl	%ebx
	.cfi_restore 3
	.cfi_def_cfa_offset 8
	popl	%edi
	.cfi_restore 7
	.cfi_def_cfa_offset 4
.LBB91:
.LBB82:
	.loc 1 65 0
	jmp	tss_flush
.LVL8:
.LBE82:
.LBE91:
	.cfi_endproc
.LFE0:
	.size	_Z8init_gdtv, .-_Z8init_gdtv
	.section	.text.unlikely
.LCOLDE0:
	.text
.LHOTE0:
	.section	.text.unlikely
.LCOLDB1:
	.text
.LHOTB1:
	.align 16
	.globl	_Z17create_descriptormmmhh
	.type	_Z17create_descriptormmmhh, @function
_Z17create_descriptormmmhh:
.LFB1:
	.loc 1 36 0
	.cfi_startproc
.LVL9:
	pushl	%ebx
	.cfi_def_cfa_offset 8
	.cfi_offset 3, -8
	.loc 1 36 0
	movl	8(%esp), %eax
	movl	12(%esp), %ecx
	movl	16(%esp), %edx
	.loc 1 38 0
	movl	%ecx, %ebx
	.loc 1 37 0
	movw	%cx, _ZL7entries+2(,%eax,8)
	.loc 1 39 0
	shrl	$24, %ecx
	movb	%cl, _ZL7entries+7(,%eax,8)
	.loc 1 43 0
	movzbl	24(%esp), %ecx
	.loc 1 38 0
	shrl	$16, %ebx
	.loc 1 41 0
	movw	%dx, _ZL7entries(,%eax,8)
	.loc 1 43 0
	shrl	$16, %edx
	.loc 1 38 0
	movb	%bl, _ZL7entries+4(,%eax,8)
	.loc 1 43 0
	andl	$15, %edx
	andl	$-16, %ecx
	orl	%ecx, %edx
	movb	%dl, _ZL7entries+6(,%eax,8)
	.loc 1 44 0
	movl	20(%esp), %edx
	.loc 1 46 0
	popl	%ebx
	.cfi_restore 3
	.cfi_def_cfa_offset 4
	.loc 1 44 0
	movb	%dl, _ZL7entries+5(,%eax,8)
	.loc 1 46 0
	ret
	.cfi_endproc
.LFE1:
	.size	_Z17create_descriptormmmhh, .-_Z17create_descriptormmmhh
	.section	.text.unlikely
.LCOLDE1:
	.text
.LHOTE1:
	.section	.text.unlikely
.LCOLDB2:
	.text
.LHOTB2:
	.align 16
	.globl	_Z8load_gdtv
	.type	_Z8load_gdtv, @function
_Z8load_gdtv:
.LFB3:
	.loc 1 61 0
	.cfi_startproc
	subl	$24, %esp
	.cfi_def_cfa_offset 28
	.loc 1 62 0
	movl	$47, %eax
	.loc 1 63 0
	movl	$_ZL7entries, _ZL7gdt_ptr+2
	.loc 1 64 0
	pushl	$_ZL7gdt_ptr
	.cfi_def_cfa_offset 32
	.loc 1 62 0
	movw	%ax, _ZL7gdt_ptr
	.loc 1 64 0
	call	GDT_Flush
.LVL10:
	.loc 1 66 0
	addl	$28, %esp
	.cfi_def_cfa_offset 4
	.loc 1 65 0
	jmp	tss_flush
.LVL11:
	.cfi_endproc
.LFE3:
	.size	_Z8load_gdtv, .-_Z8load_gdtv
	.section	.text.unlikely
.LCOLDE2:
	.text
.LHOTE2:
	.local	_ZL9tss_entry
	.comm	_ZL9tss_entry,104,32
	.local	_ZL7entries
	.comm	_ZL7entries,48,32
	.local	_ZL7gdt_ptr
	.comm	_ZL7gdt_ptr,6,4
.Letext0:
	.section	.text.unlikely
.Letext_cold0:
	.file 2 "/home/pfalcato/i686-elf/lib/gcc/i686-elf/5.3.0/include/stdint-gcc.h"
	.file 3 "include/kernel/gdt.h"