	.file	"idt.cpp"
	.text
.Ltext0:
	.section	.text.unlikely,"ax",@progbits
.LCOLDB0:
	.text
.LHOTB0:
	.align 16
	.section	.text.unlikely
.Ltext_cold0:
	.text
	.globl	_Z8init_idtv
	.type	_Z8init_idtv, @function
_Z8init_idtv:
.LFB0:
	.file 1 "arch/i386/idt.cpp"
	.loc 1 21 0
	.cfi_startproc
	pushl	%edi
	.cfi_def_cfa_offset 8
	.cfi_offset 7, -8
	.loc 1 22 0
	movl	$idt_entries, %edx
	xorl	%eax, %eax
	movl	%edx, %edi
	movl	$512, %ecx
	.loc 1 21 0
	subl	$20, %esp
	.cfi_def_cfa_offset 28
	.loc 1 22 0
	rep stosl
	.loc 1 24 0
	movl	$isr0, %eax
.LVL0:
.LBB102:
.LBB103:
	.loc 1 82 0
	movl	$8, %ecx
.LBE103:
.LBE102:
.LBB106:
.LBB107:
	movl	$8, %edi
.LBE107:
.LBE106:
.LBB111:
.LBB112:
	.loc 1 79 0
	movw	%ax, idt_entries
	.loc 1 80 0
	shrl	$16, %eax
.LBE112:
.LBE111:
.LBB116:
.LBB104:
	.loc 1 82 0
	movw	%cx, idt_entries+10
.LBE104:
.LBE116:
.LBB117:
.LBB113:
	.loc 1 80 0
	movw	%ax, idt_entries+6
	.loc 1 82 0
	movl	$8, %eax
.LBE113:
.LBE117:
.LBB118:
.LBB108:
	movw	%di, idt_entries+18
.LBE108:
.LBE118:
.LBB119:
.LBB114:
	movw	%ax, idt_entries+2
.LBE114:
.LBE119:
	.loc 1 25 0
	movl	$isr1, %eax
.LBB120:
.LBB115:
	.loc 1 85 0
	movb	$-18, idt_entries+5
.LVL1:
.LBE115:
.LBE120:
.LBB121:
.LBB105:
	.loc 1 79 0
	movw	%ax, idt_entries+8
	.loc 1 80 0
	shrl	$16, %eax
	.loc 1 85 0
	movb	$-18, idt_entries+13
.LVL2:
	.loc 1 80 0
	movw	%ax, idt_entries+14
.LBE105:
.LBE121:
	.loc 1 26 0
	movl	$isr2, %eax
.LVL3:
.LBB122:
.LBB109:
	.loc 1 85 0
	movb	$-18, idt_entries+21
.LVL4:
	.loc 1 79 0
	movw	%ax, idt_entries+16
	.loc 1 80 0
	shrl	$16, %eax
.LBE109:
.LBE122:
.LBB123:
.LBB124:
	.loc 1 85 0
	movb	$-18, idt_entries+29
.LBE124:
.LBE123:
.LBB128:
.LBB110:
	.loc 1 80 0
	movw	%ax, idt_entries+22
.LBE110:
.LBE128:
	.loc 1 27 0
	movl	$isr3, %eax
.LVL5:
.LBB129:
.LBB130:
	.loc 1 85 0
	movb	$-18, idt_entries+37
.LBE130:
.LBE129:
.LBB133:
.LBB125:
	.loc 1 79 0
	movw	%ax, idt_entries+24
	.loc 1 80 0
	shrl	$16, %eax
.LBE125:
.LBE133:
.LBB134:
.LBB135:
	.loc 1 85 0
	movb	$-18, idt_entries+45
.LBE135:
.LBE134:
.LBB137:
.LBB126:
	.loc 1 80 0
	movw	%ax, idt_entries+30
	.loc 1 82 0
	movl	$8, %eax
.LBE126:
.LBE137:
.LBB138:
.LBB139:
	.loc 1 85 0
	movb	$-18, idt_entries+53
.LBE139:
.LBE138:
.LBB141:
.LBB127:
	.loc 1 82 0
	movw	%ax, idt_entries+26
.LBE127:
.LBE141:
	.loc 1 28 0
	movl	$isr4, %eax
.LVL6:
.LBB142:
.LBB143:
	.loc 1 82 0
	movl	$8, %ecx
.LBE143:
.LBE142:
.LBB147:
.LBB131:
	.loc 1 79 0
	movw	%ax, idt_entries+32
	.loc 1 80 0
	shrl	$16, %eax
.LBE131:
.LBE147:
.LBB148:
.LBB149:
	.loc 1 82 0
	movl	$8, %edi
.LBE149:
.LBE148:
.LBB154:
.LBB132:
	.loc 1 80 0
	movw	%ax, idt_entries+38
	.loc 1 82 0
	movl	$8, %eax
	movw	%ax, idt_entries+34
.LBE132:
.LBE154:
	.loc 1 29 0
	movl	$isr5, %eax
.LVL7:
.LBB155:
.LBB136:
	.loc 1 79 0
	movw	%ax, idt_entries+40
	.loc 1 80 0
	shrl	$16, %eax
	movw	%ax, idt_entries+46
	.loc 1 82 0
	movl	$8, %eax
	movw	%ax, idt_entries+42
.LBE136:
.LBE155:
	.loc 1 30 0
	movl	$isr6, %eax
.LVL8:
.LBB156:
.LBB140:
	.loc 1 79 0
	movw	%ax, idt_entries+48
	.loc 1 80 0
	shrl	$16, %eax
	movw	%ax, idt_entries+54
	.loc 1 82 0
	movl	$8, %eax
	movw	%ax, idt_entries+50
.LBE140:
.LBE156:
	.loc 1 31 0
	movl	$isr7, %eax
.LVL9:
.LBB157:
.LBB158:
	.loc 1 79 0
	movw	%ax, idt_entries+56
	.loc 1 80 0
	shrl	$16, %eax
	movw	%ax, idt_entries+62
	.loc 1 82 0
	movl	$8, %eax
.LBE158:
.LBE157:
.LBB161:
.LBB144:
	movw	%cx, idt_entries+74
.LBE144:
.LBE161:
.LBB162:
.LBB159:
	movw	%ax, idt_entries+58
.LBE159:
.LBE162:
	.loc 1 32 0
	movl	$isr8, %eax
.LBB163:
.LBB150:
	.loc 1 82 0
	movw	%di, idt_entries+82
.LBE150:
.LBE163:
.LBB164:
.LBB165:
	.loc 1 79 0
	movw	%ax, idt_entries+64
	.loc 1 80 0
	shrl	$16, %eax
.LBE165:
.LBE164:
.LBB167:
.LBB160:
	.loc 1 85 0
	movb	$-18, idt_entries+61
.LVL10:
.LBE160:
.LBE167:
.LBB168:
.LBB166:
	.loc 1 80 0
	movw	%ax, idt_entries+70
	.loc 1 82 0
	movl	$8, %eax
	.loc 1 85 0
	movb	$-18, idt_entries+69
.LVL11:
	.loc 1 82 0
	movw	%ax, idt_entries+66
.LBE166:
.LBE168:
	.loc 1 33 0
	movl	$isr9, %eax
.LVL12:
.LBB169:
.LBB145:
	.loc 1 85 0
	movb	$-18, idt_entries+77
.LVL13:
	.loc 1 79 0
	movw	%ax, idt_entries+72
	.loc 1 80 0
	shrl	$16, %eax
.LBE145:
.LBE169:
.LBB170:
.LBB151:
	.loc 1 85 0
	movb	$-18, idt_entries+85
.LBE151:
.LBE170:
.LBB171:
.LBB146:
	.loc 1 80 0
	movw	%ax, idt_entries+78
.LBE146:
.LBE171:
	.loc 1 34 0
	movl	$isr10, %eax
.LVL14:
.LBB172:
.LBB173:
	.loc 1 85 0
	movb	$-18, idt_entries+93
.LBE173:
.LBE172:
.LBB177:
.LBB152:
	.loc 1 79 0
	movw	%ax, idt_entries+80
	.loc 1 80 0
	shrl	$16, %eax
.LBE152:
.LBE177:
.LBB178:
.LBB179:
	.loc 1 85 0
	movb	$-18, idt_entries+101
.LBE179:
.LBE178:
.LBB181:
.LBB153:
	.loc 1 80 0
	movw	%ax, idt_entries+86
.LBE153:
.LBE181:
	.loc 1 35 0
	movl	$isr11, %eax
.LVL15:
.LBB182:
.LBB183:
	.loc 1 85 0
	movb	$-18, idt_entries+109
.LBE183:
.LBE182:
.LBB185:
.LBB174:
	.loc 1 79 0
	movw	%ax, idt_entries+88
	.loc 1 80 0
	shrl	$16, %eax
.LBE174:
.LBE185:
.LBB186:
.LBB187:
	.loc 1 85 0
	movb	$-18, idt_entries+117
.LBE187:
.LBE186:
.LBB189:
.LBB175:
	.loc 1 80 0
	movw	%ax, idt_entries+94
	.loc 1 82 0
	movl	$8, %eax
.LBE175:
.LBE189:
.LBB190:
.LBB191:
	movl	$8, %ecx
.LBE191:
.LBE190:
.LBB194:
.LBB176:
	movw	%ax, idt_entries+90
.LBE176:
.LBE194:
	.loc 1 36 0
	movl	$isr12, %eax
.LVL16:
.LBB195:
.LBB196:
	.loc 1 82 0
	movl	$8, %edi
.LBE196:
.LBE195:
.LBB200:
.LBB180:
	.loc 1 79 0
	movw	%ax, idt_entries+96
	.loc 1 80 0
	shrl	$16, %eax
	movw	%ax, idt_entries+102
	.loc 1 82 0
	movl	$8, %eax
	movw	%ax, idt_entries+98
.LBE180:
.LBE200:
	.loc 1 37 0
	movl	$isr13, %eax
.LVL17:
.LBB201:
.LBB184:
	.loc 1 79 0
	movw	%ax, idt_entries+104
	.loc 1 80 0
	shrl	$16, %eax
	movw	%ax, idt_entries+110
	.loc 1 82 0
	movl	$8, %eax
	movw	%ax, idt_entries+106
.LBE184:
.LBE201:
	.loc 1 38 0
	movl	$isr14, %eax
.LVL18:
.LBB202:
.LBB188:
	.loc 1 79 0
	movw	%ax, idt_entries+112
	.loc 1 80 0
	shrl	$16, %eax
	movw	%ax, idt_entries+118
	.loc 1 82 0
	movl	$8, %eax
	movw	%ax, idt_entries+114
.LBE188:
.LBE202:
	.loc 1 39 0
	movl	$isr15, %eax
.LVL19:
.LBB203:
.LBB204:
	.loc 1 79 0
	movw	%ax, idt_entries+120
	.loc 1 80 0
	shrl	$16, %eax
	movw	%ax, idt_entries+126
	.loc 1 82 0
	movl	$8, %eax
	movw	%ax, idt_entries+122
.LBE204:
.LBE203:
	.loc 1 40 0
	movl	$isr16, %eax
.LBB206:
.LBB192:
	.loc 1 82 0
	movw	%cx, idt_entries+138
.LBE192:
.LBE206:
.LBB207:
.LBB208:
	.loc 1 79 0
	movw	%ax, idt_entries+128
	.loc 1 80 0
	shrl	$16, %eax
.LBE208:
.LBE207:
.LBB212:
.LBB197:
	.loc 1 82 0
	movw	%di, idt_entries+146
.LBE197:
.LBE212:
.LBB213:
.LBB209:
	.loc 1 80 0
	movw	%ax, idt_entries+134
	.loc 1 82 0
	movl	$8, %eax
.LBE209:
.LBE213:
.LBB214:
.LBB205:
	.loc 1 85 0
	movb	$-18, idt_entries+125
.LVL20:
.LBE205:
.LBE214:
.LBB215:
.LBB210:
	.loc 1 82 0
	movw	%ax, idt_entries+130
.LBE210:
.LBE215:
	.loc 1 41 0
	movl	$isr17, %eax
.LBB216:
.LBB211:
	.loc 1 85 0
	movb	$-18, idt_entries+133
.LVL21:
.LBE211:
.LBE216:
.LBB217:
.LBB193:
	.loc 1 79 0
	movw	%ax, idt_entries+136
	.loc 1 80 0
	shrl	$16, %eax
	.loc 1 85 0
	movb	$-18, idt_entries+141
.LVL22:
	.loc 1 80 0
	movw	%ax, idt_entries+142
.LBE193:
.LBE217:
	.loc 1 42 0
	movl	$isr18, %eax
.LVL23:
.LBB218:
.LBB198:
	.loc 1 85 0
	movb	$-18, idt_entries+149
.LVL24:
	.loc 1 79 0
	movw	%ax, idt_entries+144
	.loc 1 80 0
	shrl	$16, %eax
.LBE198:
.LBE218:
.LBB219:
.LBB220:
	.loc 1 85 0
	movb	$-18, idt_entries+157
.LBE220:
.LBE219:
.LBB224:
.LBB199:
	.loc 1 80 0
	movw	%ax, idt_entries+150
.LBE199:
.LBE224:
	.loc 1 43 0
	movl	$isr19, %eax
.LVL25:
.LBB225:
.LBB226:
	.loc 1 85 0
	movb	$-18, idt_entries+165
.LBE226:
.LBE225:
.LBB229:
.LBB221:
	.loc 1 79 0
	movw	%ax, idt_entries+152
	.loc 1 80 0
	shrl	$16, %eax
.LBE221:
.LBE229:
.LBB230:
.LBB231:
	.loc 1 85 0
	movb	$-18, idt_entries+173
.LBE231:
.LBE230:
.LBB233:
.LBB222:
	.loc 1 80 0
	movw	%ax, idt_entries+158
	.loc 1 82 0
	movl	$8, %eax
.LBE222:
.LBE233:
.LBB234:
.LBB235:
	.loc 1 85 0
	movb	$-18, idt_entries+181
.LBE235:
.LBE234:
.LBB237:
.LBB223:
	.loc 1 82 0
	movw	%ax, idt_entries+154
.LBE223:
.LBE237:
	.loc 1 44 0
	movl	$isr20, %eax
.LVL26:
.LBB238:
.LBB239:
	.loc 1 82 0
	movl	$8, %ecx
.LBE239:
.LBE238:
.LBB242:
.LBB227:
	.loc 1 79 0
	movw	%ax, idt_entries+160
	.loc 1 80 0
	shrl	$16, %eax
.LBE227:
.LBE242:
.LBB243:
.LBB244:
	.loc 1 82 0
	movl	$8, %edi
.LBE244:
.LBE243:
.LBB248:
.LBB228:
	.loc 1 80 0
	movw	%ax, idt_entries+166
	.loc 1 82 0
	movl	$8, %eax
	movw	%ax, idt_entries+162
.LBE228:
.LBE248:
	.loc 1 45 0
	movl	$isr21, %eax
.LVL27:
.LBB249:
.LBB232:
	.loc 1 79 0
	movw	%ax, idt_entries+168
	.loc 1 80 0
	shrl	$16, %eax
	movw	%ax, idt_entries+174
	.loc 1 82 0
	movl	$8, %eax
	movw	%ax, idt_entries+170
.LBE232:
.LBE249:
	.loc 1 46 0
	movl	$isr22, %eax
.LVL28:
.LBB250:
.LBB236:
	.loc 1 79 0
	movw	%ax, idt_entries+176
	.loc 1 80 0
	shrl	$16, %eax
	movw	%ax, idt_entries+182
	.loc 1 82 0
	movl	$8, %eax
	movw	%ax, idt_entries+178
.LBE236:
.LBE250:
	.loc 1 47 0
	movl	$isr23, %eax
.LVL29:
.LBB251:
.LBB252:
	.loc 1 79 0
	movw	%ax, idt_entries+184
	.loc 1 80 0
	shrl	$16, %eax
	movw	%ax, idt_entries+190
	.loc 1 82 0
	movl	$8, %eax
	movw	%ax, idt_entries+186
.LBE252:
.LBE251:
	.loc 1 48 0
	movl	$isr24, %eax
.LBB254:
.LBB253:
	.loc 1 85 0
	movb	$-18, idt_entries+189
.LVL30:
.LBE253:
.LBE254:
.LBB255:
.LBB256:
	.loc 1 79 0
	movw	%ax, idt_entries+192
	.loc 1 80 0
	shrl	$16, %eax
.LBE256:
.LBE255:
.LBB260:
.LBB240:
	.loc 1 82 0
	movw	%cx, idt_entries+202
.LBE240:
.LBE260:
.LBB261:
.LBB257:
	.loc 1 80 0
	movw	%ax, idt_entries+198
	.loc 1 82 0
	movl	$8, %eax
.LBE257:
.LBE261:
.LBB262:
.LBB245:
	movw	%di, idt_entries+210
.LBE245:
.LBE262:
.LBB263:
.LBB258:
	movw	%ax, idt_entries+194
.LBE258:
.LBE263:
	.loc 1 49 0
	movl	$isr25, %eax
.LBB264:
.LBB259:
	.loc 1 85 0
	movb	$-18, idt_entries+197
.LVL31:
.LBE259:
.LBE264:
.LBB265:
.LBB241:
	.loc 1 79 0
	movw	%ax, idt_entries+200
	.loc 1 80 0
	shrl	$16, %eax
	.loc 1 85 0
	movb	$-18, idt_entries+205
.LVL32:
	.loc 1 80 0
	movw	%ax, idt_entries+206
.LBE241:
.LBE265:
	.loc 1 50 0
	movl	$isr26, %eax
.LVL33:
.LBB266:
.LBB246:
	.loc 1 85 0
	movb	$-18, idt_entries+213
.LVL34:
	.loc 1 79 0
	movw	%ax, idt_entries+208
	.loc 1 80 0
	shrl	$16, %eax
.LBE246:
.LBE266:
.LBB267:
.LBB268:
	.loc 1 85 0
	movb	$-18, idt_entries+221
.LBE268:
.LBE267:
.LBB272:
.LBB247:
	.loc 1 80 0
	movw	%ax, idt_entries+214
.LBE247:
.LBE272:
	.loc 1 51 0
	movl	$isr27, %eax
.LVL35:
.LBB273:
.LBB274:
	.loc 1 85 0
	movb	$-18, idt_entries+229
.LBE274:
.LBE273:
.LBB278:
.LBB269:
	.loc 1 79 0
	movw	%ax, idt_entries+216
	.loc 1 80 0
	shrl	$16, %eax
.LBE269:
.LBE278:
.LBB279:
.LBB280:
	.loc 1 85 0
	movb	$-18, idt_entries+237
.LBE280:
.LBE279:
.LBB282:
.LBB270:
	.loc 1 80 0
	movw	%ax, idt_entries+222
	.loc 1 82 0
	movl	$8, %eax
.LBE270:
.LBE282:
.LBB283:
.LBB284:
	.loc 1 85 0
	movb	$-18, idt_entries+245
.LBE284:
.LBE283:
.LBB286:
.LBB271:
	.loc 1 82 0
	movw	%ax, idt_entries+218
.LBE271:
.LBE286:
	.loc 1 52 0
	movl	$isr28, %eax
.LVL36:
.LBB287:
.LBB288:
	.loc 1 85 0
	movb	$-18, idt_entries+253
.LBE288:
.LBE287:
.LBB290:
.LBB275:
	.loc 1 79 0
	movw	%ax, idt_entries+224
	.loc 1 80 0
	shrl	$16, %eax
.LBE275:
.LBE290:
.LBB291:
.LBB292:
	.loc 1 82 0
	movl	$8, %ecx
.LBE292:
.LBE291:
.LBB295:
.LBB276:
	.loc 1 80 0
	movw	%ax, idt_entries+230
	.loc 1 82 0
	movl	$8, %eax
.LBE276:
.LBE295:
.LBB296:
.LBB297:
	movl	$8, %edi
.LBE297:
.LBE296:
.LBB301:
.LBB277:
	movw	%ax, idt_entries+226
.LBE277:
.LBE301:
	.loc 1 53 0
	movl	$isr29, %eax
.LVL37:
.LBB302:
.LBB281:
	.loc 1 79 0
	movw	%ax, idt_entries+232
	.loc 1 80 0
	shrl	$16, %eax
	movw	%ax, idt_entries+238
	.loc 1 82 0
	movl	$8, %eax
	movw	%ax, idt_entries+234
.LBE281:
.LBE302:
	.loc 1 54 0
	movl	$isr30, %eax
.LVL38:
.LBB303:
.LBB285:
	.loc 1 79 0
	movw	%ax, idt_entries+240
	.loc 1 80 0
	shrl	$16, %eax
	movw	%ax, idt_entries+246
	.loc 1 82 0
	movl	$8, %eax
	movw	%ax, idt_entries+242
.LBE285:
.LBE303:
	.loc 1 55 0
	movl	$isr31, %eax
.LVL39:
.LBB304:
.LBB289:
	.loc 1 79 0
	movw	%ax, idt_entries+248
	.loc 1 80 0
	shrl	$16, %eax
	movw	%ax, idt_entries+254
	.loc 1 82 0
	movl	$8, %eax
	movw	%ax, idt_entries+250
.LBE289:
.LBE304:
	.loc 1 56 0
	movl	$irq0, %eax
.LVL40:
.LBB305:
.LBB306:
	.loc 1 79 0
	movw	%ax, idt_entries+256
	.loc 1 80 0
	shrl	$16, %eax
.LBE306:
.LBE305:
.LBB310:
.LBB293:
	.loc 1 82 0
	movw	%cx, idt_entries+266
.LBE293:
.LBE310:
.LBB311:
.LBB307:
	.loc 1 80 0
	movw	%ax, idt_entries+262
	.loc 1 82 0
	movl	$8, %eax
.LBE307:
.LBE311:
.LBB312:
.LBB298:
	movw	%di, idt_entries+274
.LBE298:
.LBE312:
.LBB313:
.LBB308:
	movw	%ax, idt_entries+258
.LBE308:
.LBE313:
	.loc 1 57 0
	movl	$irq1, %eax
.LBB314:
.LBB309:
	.loc 1 85 0
	movb	$-18, idt_entries+261
.LVL41:
.LBE309:
.LBE314:
.LBB315:
.LBB294:
	.loc 1 79 0
	movw	%ax, idt_entries+264
	.loc 1 80 0
	shrl	$16, %eax
	.loc 1 85 0
	movb	$-18, idt_entries+269
.LVL42:
	.loc 1 80 0
	movw	%ax, idt_entries+270
.LBE294:
.LBE315:
	.loc 1 58 0
	movl	$irq2, %eax
.LVL43:
.LBB316:
.LBB299:
	.loc 1 85 0
	movb	$-18, idt_entries+277
.LVL44:
	.loc 1 79 0
	movw	%ax, idt_entries+272
	.loc 1 80 0
	shrl	$16, %eax
.LBE299:
.LBE316:
.LBB317:
.LBB318:
	.loc 1 85 0
	movb	$-18, idt_entries+285
.LBE318:
.LBE317:
.LBB322:
.LBB300:
	.loc 1 80 0
	movw	%ax, idt_entries+278
.LBE300:
.LBE322:
	.loc 1 59 0
	movl	$irq3, %eax
.LVL45:
.LBB323:
.LBB324:
	.loc 1 85 0
	movb	$-18, idt_entries+293
.LBE324:
.LBE323:
.LBB328:
.LBB319:
	.loc 1 79 0
	movw	%ax, idt_entries+280
	.loc 1 80 0
	shrl	$16, %eax
.LBE319:
.LBE328:
.LBB329:
.LBB330:
	.loc 1 85 0
	movb	$-18, idt_entries+301
.LBE330:
.LBE329:
.LBB332:
.LBB320:
	.loc 1 80 0
	movw	%ax, idt_entries+286
	.loc 1 82 0
	movl	$8, %eax
.LBE320:
.LBE332:
.LBB333:
.LBB334:
	.loc 1 85 0
	movb	$-18, idt_entries+309
.LBE334:
.LBE333:
.LBB336:
.LBB321:
	.loc 1 82 0
	movw	%ax, idt_entries+282
.LBE321:
.LBE336:
	.loc 1 60 0
	movl	$irq4, %eax
.LVL46:
.LBB337:
.LBB338:
	.loc 1 85 0
	movb	$-18, idt_entries+317
.LBE338:
.LBE337:
.LBB340:
.LBB325:
	.loc 1 79 0
	movw	%ax, idt_entries+288
	.loc 1 80 0
	shrl	$16, %eax
.LBE325:
.LBE340:
.LBB341:
.LBB342:
	.loc 1 82 0
	movl	$8, %ecx
.LBE342:
.LBE341:
.LBB347:
.LBB326:
	.loc 1 80 0
	movw	%ax, idt_entries+294
	.loc 1 82 0
	movl	$8, %eax
.LBE326:
.LBE347:
.LBB348:
.LBB349:
	movl	$8, %edi
.LBE349:
.LBE348:
.LBB352:
.LBB327:
	movw	%ax, idt_entries+290
.LBE327:
.LBE352:
	.loc 1 61 0
	movl	$irq5, %eax
.LVL47:
.LBB353:
.LBB331:
	.loc 1 79 0
	movw	%ax, idt_entries+296
	.loc 1 80 0
	shrl	$16, %eax
	movw	%ax, idt_entries+302
	.loc 1 82 0
	movl	$8, %eax
	movw	%ax, idt_entries+298
.LBE331:
.LBE353:
	.loc 1 62 0
	movl	$irq6, %eax
.LVL48:
.LBB354:
.LBB335:
	.loc 1 79 0
	movw	%ax, idt_entries+304
	.loc 1 80 0
	shrl	$16, %eax
	movw	%ax, idt_entries+310
	.loc 1 82 0
	movl	$8, %eax
	movw	%ax, idt_entries+306
.LBE335:
.LBE354:
	.loc 1 63 0
	movl	$irq7, %eax
.LVL49:
.LBB355:
.LBB339:
	.loc 1 79 0
	movw	%ax, idt_entries+312
	.loc 1 80 0
	shrl	$16, %eax
	movw	%ax, idt_entries+318
	.loc 1 82 0
	movl	$8, %eax
	movw	%ax, idt_entries+314
.LBE339:
.LBE355:
	.loc 1 64 0
	movl	$irq8, %eax
.LVL50:
.LBB356:
.LBB357:
	.loc 1 79 0
	movw	%ax, idt_entries+320
	.loc 1 80 0
	shrl	$16, %eax
	movw	%ax, idt_entries+326
	.loc 1 82 0
	movl	$8, %eax
.LBE357:
.LBE356:
.LBB360:
.LBB343:
	movw	%cx, idt_entries+330
.LBE343:
.LBE360:
.LBB361:
.LBB358:
	movw	%ax, idt_entries+322
.LBE358:
.LBE361:
	.loc 1 65 0
	movl	$irq9, %eax
.LBB362:
.LBB350:
	.loc 1 82 0
	movw	%di, idt_entries+338
.LBE350:
.LBE362:
.LBB363:
.LBB344:
	.loc 1 79 0
	movw	%ax, idt_entries+328
	.loc 1 80 0
	shrl	$16, %eax
.LBE344:
.LBE363:
.LBB364:
.LBB359:
	.loc 1 85 0
	movb	$-18, idt_entries+325
.LVL51:
.LBE359:
.LBE364:
.LBB365:
.LBB345:
	.loc 1 80 0
	movw	%ax, idt_entries+334
.LBE345:
.LBE365:
	.loc 1 66 0
	movl	$irq10, %eax
.LBB366:
.LBB346:
	.loc 1 85 0
	movb	$-18, idt_entries+333
.LVL52:
.LBE346:
.LBE366:
.LBB367:
.LBB351:
	.loc 1 79 0
	movw	%ax, idt_entries+336
	.loc 1 80 0
	shrl	$16, %eax
	.loc 1 85 0
	movb	$-18, idt_entries+341
.LVL53:
	.loc 1 80 0
	movw	%ax, idt_entries+342
.LBE351:
.LBE367:
	.loc 1 67 0
	movl	$irq11, %eax
.LVL54:
.LBB368:
.LBB369:
	.loc 1 85 0
	movb	$-18, idt_entries+349
.LVL55:
	.loc 1 79 0
	movw	%ax, idt_entries+344
	.loc 1 80 0
	shrl	$16, %eax
.LBE369:
.LBE368:
.LBB372:
.LBB373:
	.loc 1 85 0
	movb	$-18, idt_entries+357
.LBE373:
.LBE372:
.LBB377:
.LBB370:
	.loc 1 80 0
	movw	%ax, idt_entries+350
	.loc 1 82 0
	movl	$8, %eax
.LBE370:
.LBE377:
.LBB378:
.LBB379:
	.loc 1 85 0
	movb	$-18, idt_entries+365
.LBE379:
.LBE378:
.LBB381:
.LBB371:
	.loc 1 82 0
	movw	%ax, idt_entries+346
.LBE371:
.LBE381:
	.loc 1 68 0
	movl	$irq12, %eax
.LVL56:
.LBB382:
.LBB383:
	.loc 1 85 0
	movb	$-18, idt_entries+373
.LBE383:
.LBE382:
.LBB385:
.LBB374:
	.loc 1 79 0
	movw	%ax, idt_entries+352
	.loc 1 80 0
	shrl	$16, %eax
.LBE374:
.LBE385:
.LBB386:
.LBB387:
	.loc 1 85 0
	movb	$-18, idt_entries+381
.LBE387:
.LBE386:
.LBB389:
.LBB375:
	.loc 1 80 0
	movw	%ax, idt_entries+358
	.loc 1 82 0
	movl	$8, %eax
.LBE375:
.LBE389:
.LBB390:
.LBB391:
	.loc 1 90 0
	movl	$2047, %ecx
.LBE391:
.LBE390:
.LBB394:
.LBB376:
	.loc 1 82 0
	movw	%ax, idt_entries+354
.LBE376:
.LBE394:
	.loc 1 69 0
	movl	$irq13, %eax
.LVL57:
.LBB395:
.LBB380:
	.loc 1 79 0
	movw	%ax, idt_entries+360
	.loc 1 80 0
	shrl	$16, %eax
	movw	%ax, idt_entries+366
	.loc 1 82 0
	movl	$8, %eax
	movw	%ax, idt_entries+362
.LBE380:
.LBE395:
	.loc 1 70 0
	movl	$irq14, %eax
.LVL58:
.LBB396:
.LBB384:
	.loc 1 79 0
	movw	%ax, idt_entries+368
	.loc 1 80 0
	shrl	$16, %eax
	movw	%ax, idt_entries+374
	.loc 1 82 0
	movl	$8, %eax
	movw	%ax, idt_entries+370
.LBE384:
.LBE396:
	.loc 1 71 0
	movl	$irq15, %eax
.LVL59:
.LBB397:
.LBB388:
	.loc 1 79 0
	movw	%ax, idt_entries+376
	.loc 1 80 0
	shrl	$16, %eax
	movw	%ax, idt_entries+382
	.loc 1 82 0
	movl	$8, %eax
	movw	%ax, idt_entries+378
.LBE388:
.LBE397:
	.loc 1 73 0
	movl	$_syscall, %eax
.LVL60:
.LBB398:
.LBB399:
	.loc 1 79 0
	movw	%ax, idt_entries+1024
	.loc 1 80 0
	shrl	$16, %eax
	movw	%ax, idt_entries+1030
	.loc 1 82 0
	movl	$8, %eax
	movw	%ax, idt_entries+1026
.LBE399:
.LBE398:
.LBB401:
.LBB392:
	.loc 1 92 0
	pushl	$idt_ptr
	.cfi_def_cfa_offset 32
.LBE392:
.LBE401:
.LBB402:
.LBB400:
	.loc 1 85 0
	movb	$-18, idt_entries+1029
.LVL61:
.LBE400:
.LBE402:
.LBB403:
.LBB393:
	.loc 1 90 0
	movw	%cx, idt_ptr
	.loc 1 91 0
	movl	%edx, idt_ptr+2
	.loc 1 92 0
	call	IDT_Flush
.LVL62:
.LBE393:
.LBE403:
	.loc 1 76 0
	addl	$24, %esp
	.cfi_def_cfa_offset 8
	popl	%edi
	.cfi_restore 7
	.cfi_def_cfa_offset 4
	ret
	.cfi_endproc
.LFE0:
	.size	_Z8init_idtv, .-_Z8init_idtv
	.section	.text.unlikely
.LCOLDE0:
	.text
.LHOTE0:
	.section	.text.unlikely
.LCOLDB1:
	.text
.LHOTB1:
	.align 16
	.globl	_Z21idt_create_descriptorhmth
	.type	_Z21idt_create_descriptorhmth, @function
_Z21idt_create_descriptorhmth:
.LFB1:
	.loc 1 78 0
	.cfi_startproc
.LVL63:
	.loc 1 79 0
	movzbl	4(%esp), %eax
	.loc 1 78 0
	movl	8(%esp), %edx
	.loc 1 79 0
	movw	%dx, idt_entries(,%eax,8)
	.loc 1 80 0
	shrl	$16, %edx
	.loc 1 84 0
	movb	$0, idt_entries+4(,%eax,8)
	.loc 1 80 0
	movw	%dx, idt_entries+6(,%eax,8)
	.loc 1 82 0
	movl	12(%esp), %edx
	movw	%dx, idt_entries+2(,%eax,8)
	.loc 1 85 0
	movzbl	16(%esp), %edx
	orl	$96, %edx
	movb	%dl, idt_entries+5(,%eax,8)
	ret
	.cfi_endproc
.LFE1:
	.size	_Z21idt_create_descriptorhmth, .-_Z21idt_create_descriptorhmth
	.section	.text.unlikely
.LCOLDE1:
	.text
.LHOTE1:
	.section	.text.unlikely
.LCOLDB2:
	.text
.LHOTB2:
	.align 16
	.globl	_Z8load_idtv
	.type	_Z8load_idtv, @function
_Z8load_idtv:
.LFB2:
	.loc 1 89 0
	.cfi_startproc
	subl	$24, %esp
	.cfi_def_cfa_offset 28
	.loc 1 90 0
	movl	$2047, %eax
	.loc 1 91 0
	movl	$idt_entries, idt_ptr+2
	.loc 1 92 0
	pushl	$idt_ptr
	.cfi_def_cfa_offset 32
	.loc 1 90 0
	movw	%ax, idt_ptr
	.loc 1 92 0
	call	IDT_Flush
.LVL64:
	.loc 1 93 0
	addl	$28, %esp
	.cfi_def_cfa_offset 4
	ret
	.cfi_endproc
.LFE2:
	.size	_Z8load_idtv, .-_Z8load_idtv
	.section	.text.unlikely
.LCOLDE2:
	.text
.LHOTE2:
	.globl	idt_entries
	.section	.bss
	.align 32
	.type	idt_entries, @object
	.size	idt_entries, 2048
idt_entries:
	.zero	2048
	.globl	idt_ptr
	.align 4
	.type	idt_ptr, @object
	.size	idt_ptr, 6
idt_ptr:
	.zero	6
	.text
.Letext0:
	.section	.text.unlikely
.Letext_cold0:
	.file 2 "/home/pfalcato/i686-elf/lib/gcc/i686-elf/5.3.0/include/stdint-gcc.h"
	.file 3 "include/kernel/idt.h"