	.file	"irq.cpp"
	.text
.Ltext0:
	.section	.text.unlikely,"ax",@progbits
.LCOLDB0:
	.text
.LHOTB0:
	.align 16
	.section	.text.unlikely
.Ltext_cold0:
	.text
	.globl	_ZN3IRQ14InstallHandlerEiPFvjE
	.type	_ZN3IRQ14InstallHandlerEiPFvjE, @function
_ZN3IRQ14InstallHandlerEiPFvjE:
.LFB0:
	.file 1 "arch/i386/irq.cpp"
	.loc 1 38 0
	.cfi_startproc
.LVL0:
	.loc 1 39 0
	movl	8(%esp), %edx
	movl	4(%esp), %eax
	movl	%edx, irq_routines(,%eax,4)
	ret
	.cfi_endproc
.LFE0:
	.size	_ZN3IRQ14InstallHandlerEiPFvjE, .-_ZN3IRQ14InstallHandlerEiPFvjE
	.section	.text.unlikely
.LCOLDE0:
	.text
.LHOTE0:
	.section	.text.unlikely
.LCOLDB1:
	.text
.LHOTB1:
	.align 16
	.globl	_ZN3IRQ16UninstallHandlerEi
	.type	_ZN3IRQ16UninstallHandlerEi, @function
_ZN3IRQ16UninstallHandlerEi:
.LFB1:
	.loc 1 42 0
	.cfi_startproc
.LVL1:
	.loc 1 43 0
	movl	4(%esp), %eax
	movl	$0, irq_routines(,%eax,4)
	ret
	.cfi_endproc
.LFE1:
	.size	_ZN3IRQ16UninstallHandlerEi, .-_ZN3IRQ16UninstallHandlerEi
	.section	.text.unlikely
.LCOLDE1:
	.text
.LHOTE1:
	.section	.text.unlikely
.LCOLDB2:
	.text
.LHOTB2:
	.align 16
	.globl	irq_handler
	.type	irq_handler, @function
irq_handler:
.LFB2:
	.loc 1 47 0
	.cfi_startproc
.LVL2:
	pushl	%ebx
	.cfi_def_cfa_offset 8
	.cfi_offset 3, -8
	subl	$8, %esp
	.cfi_def_cfa_offset 16
	.loc 1 47 0
	movl	16(%esp), %ebx
	movl	20(%esp), %edx
	.loc 1 48 0
	movl	irq_routines-128(,%ebx,4), %eax
.LVL3:
	.loc 1 49 0
	testl	%eax, %eax
	je	.L4
	.loc 1 50 0
	subl	$12, %esp
	.cfi_def_cfa_offset 28
	pushl	%edx
	.cfi_def_cfa_offset 32
	call	*%eax
.LVL4:
	addl	$16, %esp
	.cfi_def_cfa_offset 16
.L4:
	.loc 1 52 0
	subl	$32, %ebx
	movzbl	%bl, %ebx
	movl	%ebx, 16(%esp)
	.loc 1 53 0
	addl	$8, %esp
	.cfi_def_cfa_offset 8
	popl	%ebx
	.cfi_restore 3
	.cfi_def_cfa_offset 4
	.loc 1 52 0
	jmp	_ZN3PIC7SendEOIEh
.LVL5:
	.cfi_endproc
.LFE2:
	.size	irq_handler, .-irq_handler
	.section	.text.unlikely
.LCOLDE2:
	.text
.LHOTE2:
	.globl	irq_routines
	.section	.bss
	.align 32
	.type	irq_routines, @object
	.size	irq_routines, 64
irq_routines:
	.zero	64
	.text
.Letext0:
	.section	.text.unlikely
.Letext_cold0:
	.file 2 "/home/pfalcato/i686-elf/lib/gcc/i686-elf/5.3.0/include/stdint-gcc.h"
	.file 3 "include/kernel/irq.h"