	.file	"pic.cpp"
	.text
.Ltext0:
	.section	.text.unlikely,"ax",@progbits
.LCOLDB0:
	.text
.LHOTB0:
	.align 16
	.section	.text.unlikely
.Ltext_cold0:
	.text
	.globl	_ZN3PIC7DisableEv
	.type	_ZN3PIC7DisableEv, @function
_ZN3PIC7DisableEv:
.LFB8:
	.file 1 "arch/i386/pic.cpp"
	.loc 1 41 0
	.cfi_startproc
.LVL0:
.LBB84:
.LBB85:
	.file 2 "include/kernel/portio.h"
	.loc 2 22 0
	movl	$-1, %eax
/APP
/  22 "include/kernel/portio.h" 1
	outb %al, $161
/  0 "" 2
.LVL1:
/NO_APP
.LBE85:
.LBE84:
.LBB86:
.LBB87:
/APP
/  22 "include/kernel/portio.h" 1
	outb %al, $33
/  0 "" 2
.LVL2:
/NO_APP
	ret
.LBE87:
.LBE86:
	.cfi_endproc
.LFE8:
	.size	_ZN3PIC7DisableEv, .-_ZN3PIC7DisableEv
	.section	.text.unlikely
.LCOLDE0:
	.text
.LHOTE0:
	.section	.text.unlikely
.LCOLDB1:
	.text
.LHOTB1:
	.align 16
	.globl	_ZN3PIC5RemapEv
	.type	_ZN3PIC5RemapEv, @function
_ZN3PIC5RemapEv:
.LFB9:
	.loc 1 47 0
	.cfi_startproc
.LVL3:
.LBB88:
.LBB89:
	.loc 2 22 0
	movl	$17, %eax
/APP
/  22 "include/kernel/portio.h" 1
	outb %al, $32
/  0 "" 2
.LVL4:
/NO_APP
.LBE89:
.LBE88:
.LBB90:
.LBB91:
	.loc 2 54 0
	xorl	%eax, %eax
/APP
/  54 "include/kernel/portio.h" 1
	outb %al, $0x80
/  0 "" 2
.LVL5:
/NO_APP
.LBE91:
.LBE90:
.LBB92:
.LBB93:
	.loc 2 22 0
	movl	$17, %eax
/APP
/  22 "include/kernel/portio.h" 1
	outb %al, $160
/  0 "" 2
.LVL6:
/NO_APP
.LBE93:
.LBE92:
.LBB94:
.LBB95:
	.loc 2 54 0
	xorl	%eax, %eax
/APP
/  54 "include/kernel/portio.h" 1
	outb %al, $0x80
/  0 "" 2
.LVL7:
/NO_APP
.LBE95:
.LBE94:
.LBB96:
.LBB97:
	.loc 2 22 0
	movl	$32, %eax
/APP
/  22 "include/kernel/portio.h" 1
	outb %al, $33
/  0 "" 2
.LVL8:
/NO_APP
.LBE97:
.LBE96:
.LBB98:
.LBB99:
	.loc 2 54 0
	xorl	%eax, %eax
/APP
/  54 "include/kernel/portio.h" 1
	outb %al, $0x80
/  0 "" 2
.LVL9:
/NO_APP
.LBE99:
.LBE98:
.LBB100:
.LBB101:
	.loc 2 22 0
	movl	$40, %eax
/APP
/  22 "include/kernel/portio.h" 1
	outb %al, $161
/  0 "" 2
.LVL10:
/NO_APP
.LBE101:
.LBE100:
.LBB102:
.LBB103:
	.loc 2 54 0
	xorl	%eax, %eax
/APP
/  54 "include/kernel/portio.h" 1
	outb %al, $0x80
/  0 "" 2
.LVL11:
/NO_APP
.LBE103:
.LBE102:
.LBB104:
.LBB105:
	.loc 2 22 0
	movl	$4, %eax
/APP
/  22 "include/kernel/portio.h" 1
	outb %al, $33
/  0 "" 2
.LVL12:
/NO_APP
.LBE105:
.LBE104:
.LBB106:
.LBB107:
	.loc 2 54 0
	xorl	%eax, %eax
/APP
/  54 "include/kernel/portio.h" 1
	outb %al, $0x80
/  0 "" 2
.LVL13:
/NO_APP
.LBE107:
.LBE106:
.LBB108:
.LBB109:
	.loc 2 22 0
	movl	$2, %eax
/APP
/  22 "include/kernel/portio.h" 1
	outb %al, $161
/  0 "" 2
.LVL14:
/NO_APP
.LBE109:
.LBE108:
.LBB110:
.LBB111:
	.loc 2 54 0
	xorl	%eax, %eax
/APP
/  54 "include/kernel/portio.h" 1
	outb %al, $0x80
/  0 "" 2
.LVL15:
/NO_APP
.LBE111:
.LBE110:
.LBB112:
.LBB113:
	.loc 2 22 0
	movl	$1, %eax
/APP
/  22 "include/kernel/portio.h" 1
	outb %al, $33
/  0 "" 2
.LVL16:
/NO_APP
.LBE113:
.LBE112:
.LBB114:
.LBB115:
	.loc 2 54 0
	xorl	%eax, %eax
/APP
/  54 "include/kernel/portio.h" 1
	outb %al, $0x80
/  0 "" 2
.LVL17:
/NO_APP
.LBE115:
.LBE114:
.LBB116:
.LBB117:
	.loc 2 22 0
	movl	$1, %eax
/APP
/  22 "include/kernel/portio.h" 1
	outb %al, $161
/  0 "" 2
.LVL18:
/NO_APP
.LBE117:
.LBE116:
.LBB118:
.LBB119:
	.loc 2 54 0
	xorl	%eax, %eax
/APP
/  54 "include/kernel/portio.h" 1
	outb %al, $0x80
/  0 "" 2
.LVL19:
/NO_APP
.LBE119:
.LBE118:
.LBB120:
.LBB121:
	.loc 2 22 0
/APP
/  22 "include/kernel/portio.h" 1
	outb %al, $33
/  0 "" 2
.LVL20:
/NO_APP
.LBE121:
.LBE120:
.LBB122:
.LBB123:
	.loc 2 54 0
	xorl	%eax, %eax
/APP
/  54 "include/kernel/portio.h" 1
	outb %al, $0x80
/  0 "" 2
.LVL21:
/NO_APP
.LBE123:
.LBE122:
.LBB124:
.LBB125:
	.loc 2 22 0
/APP
/  22 "include/kernel/portio.h" 1
	outb %al, $161
/  0 "" 2
.LVL22:
/NO_APP
	ret
.LBE125:
.LBE124:
	.cfi_endproc
.LFE9:
	.size	_ZN3PIC5RemapEv, .-_ZN3PIC5RemapEv
	.section	.text.unlikely
.LCOLDE1:
	.text
.LHOTE1:
	.section	.text.unlikely
.LCOLDB2:
	.text
.LHOTB2:
	.align 16
	.globl	_ZN3PIC9UnmaskIRQEt
	.type	_ZN3PIC9UnmaskIRQEt, @function
_ZN3PIC9UnmaskIRQEt:
.LFB10:
	.loc 1 70 0
	.cfi_startproc
.LVL23:
	pushl	%ebx
	.cfi_def_cfa_offset 8
	.cfi_offset 3, -8
	.loc 1 70 0
	movl	8(%esp), %eax
	.loc 1 74 0
	cmpw	$7, %ax
	jbe	.L6
.LVL24:
	.loc 1 78 0
	leal	-8(%eax), %ecx
.LVL25:
	.loc 1 77 0
	movl	$161, %edx
.LVL26:
.L4:
.LBB126:
.LBB127:
	.loc 2 35 0
/APP
/  35 "include/kernel/portio.h" 1
	inb %dx, %al
/  0 "" 2
.LVL27:
/NO_APP
.LBE127:
.LBE126:
.LBB128:
.LBB129:
	.loc 2 22 0
	movl	$-2, %ebx
	roll	%cl, %ebx
	andl	%ebx, %eax
.LVL28:
/APP
/  22 "include/kernel/portio.h" 1
	outb %al, %dx
/  0 "" 2
.LVL29:
/NO_APP
.LBE129:
.LBE128:
	.loc 1 82 0
	popl	%ebx
	.cfi_remember_state
	.cfi_restore 3
	.cfi_def_cfa_offset 4
	ret
.LVL30:
	.align 16
.L6:
	.cfi_restore_state
	movl	%eax, %ecx
	movl	$33, %edx
	jmp	.L4
	.cfi_endproc
.LFE10:
	.size	_ZN3PIC9UnmaskIRQEt, .-_ZN3PIC9UnmaskIRQEt
	.section	.text.unlikely
.LCOLDE2:
	.text
.LHOTE2:
	.section	.text.unlikely
.LCOLDB3:
	.text
.LHOTB3:
	.align 16
	.globl	_ZN3PIC7MaskIRQEt
	.type	_ZN3PIC7MaskIRQEt, @function
_ZN3PIC7MaskIRQEt:
.LFB11:
	.loc 1 85 0
	.cfi_startproc
.LVL31:
	pushl	%ebx
	.cfi_def_cfa_offset 8
	.cfi_offset 3, -8
	.loc 1 85 0
	movl	8(%esp), %eax
	.loc 1 88 0
	cmpw	$7, %ax
	jbe	.L12
.LVL32:
	.loc 1 92 0
	leal	-8(%eax), %ecx
.LVL33:
	.loc 1 91 0
	movl	$161, %edx
.LVL34:
.L10:
.LBB130:
.LBB131:
	.loc 2 35 0
/APP
/  35 "include/kernel/portio.h" 1
	inb %dx, %al
/  0 "" 2
.LVL35:
/NO_APP
.LBE131:
.LBE130:
.LBB132:
.LBB133:
	.loc 2 22 0
	movl	$1, %ebx
	sall	%cl, %ebx
	orl	%ebx, %eax
.LVL36:
/APP
/  22 "include/kernel/portio.h" 1
	outb %al, %dx
/  0 "" 2
.LVL37:
/NO_APP
.LBE133:
.LBE132:
	.loc 1 96 0
	popl	%ebx
	.cfi_remember_state
	.cfi_restore 3
	.cfi_def_cfa_offset 4
	ret
.LVL38:
	.align 16
.L12:
	.cfi_restore_state
	movl	%eax, %ecx
	movl	$33, %edx
	jmp	.L10
	.cfi_endproc
.LFE11:
	.size	_ZN3PIC7MaskIRQEt, .-_ZN3PIC7MaskIRQEt
	.section	.text.unlikely
.LCOLDE3:
	.text
.LHOTE3:
	.section	.text.unlikely
.LCOLDB4:
	.text
.LHOTB4:
	.align 16
	.globl	_ZN3PIC6GetIRREv
	.type	_ZN3PIC6GetIRREv, @function
_ZN3PIC6GetIRREv:
.LFB12:
	.loc 1 100 0
	.cfi_startproc
.LVL39:
.LBB134:
.LBB135:
.LBB136:
.LBB137:
	.loc 2 22 0
	movl	$10, %eax
/APP
/  22 "include/kernel/portio.h" 1
	outb %al, $32
/  0 "" 2
.LVL40:
/NO_APP
.LBE137:
.LBE136:
.LBB138:
.LBB139:
/APP
/  22 "include/kernel/portio.h" 1
	outb %al, $160
/  0 "" 2
.LVL41:
/NO_APP
.LBE139:
.LBE138:
.LBB140:
.LBB141:
	.loc 2 35 0
/APP
/  35 "include/kernel/portio.h" 1
	inb $160, %al
/  0 "" 2
/NO_APP
	movl	%eax, %ecx
.LVL42:
.LBE141:
.LBE140:
.LBB142:
.LBB143:
/APP
/  35 "include/kernel/portio.h" 1
	inb $32, %al
/  0 "" 2
/NO_APP
	movzbl	%al, %edx
.LVL43:
.LBE143:
.LBE142:
.LBE135:
.LBE134:
	.loc 1 101 0
	movl	%ecx, %eax
	sall	$8, %eax
	orl	%edx, %eax
	.loc 1 102 0
	ret
	.cfi_endproc
.LFE12:
	.size	_ZN3PIC6GetIRREv, .-_ZN3PIC6GetIRREv
	.section	.text.unlikely
.LCOLDE4:
	.text
.LHOTE4:
	.section	.text.unlikely
.LCOLDB5:
	.text
.LHOTB5:
	.align 16
	.globl	_ZN3PIC7SendEOIEh
	.type	_ZN3PIC7SendEOIEh, @function
_ZN3PIC7SendEOIEh:
.LFB13:
	.loc 1 104 0
	.cfi_startproc
.LVL44:
	.loc 1 105 0
	cmpb	$7, 4(%esp)
	jbe	.L16
.LVL45:
.LBB144:
.LBB145:
	.loc 2 22 0
	movl	$32, %eax
/APP
/  22 "include/kernel/portio.h" 1
	outb %al, $160
/  0 "" 2
.LVL46:
/NO_APP
.L16:
.LBE145:
.LBE144:
.LBB146:
.LBB147:
	movl	$32, %eax
/APP
/  22 "include/kernel/portio.h" 1
	outb %al, $32
/  0 "" 2
.LVL47:
/NO_APP
	ret
.LBE147:
.LBE146:
	.cfi_endproc
.LFE13:
	.size	_ZN3PIC7SendEOIEh, .-_ZN3PIC7SendEOIEh
	.section	.text.unlikely
.LCOLDE5:
	.text
.LHOTE5:
	.section	.text.unlikely
.LCOLDB6:
	.text
.LHOTB6:
	.align 16
	.globl	_ZN3PIC6GetISREv
	.type	_ZN3PIC6GetISREv, @function
_ZN3PIC6GetISREv:
.LFB14:
	.loc 1 112 0
	.cfi_startproc
.LVL48:
.LBB148:
.LBB149:
.LBB150:
.LBB151:
	.loc 2 22 0
	movl	$11, %eax
/APP
/  22 "include/kernel/portio.h" 1
	outb %al, $32
/  0 "" 2
.LVL49:
/NO_APP
.LBE151:
.LBE150:
.LBB152:
.LBB153:
/APP
/  22 "include/kernel/portio.h" 1
	outb %al, $160
/  0 "" 2
.LVL50:
/NO_APP
.LBE153:
.LBE152:
.LBB154:
.LBB155:
	.loc 2 35 0
/APP
/  35 "include/kernel/portio.h" 1
	inb $160, %al
/  0 "" 2
/NO_APP
	movl	%eax, %ecx
.LVL51:
.LBE155:
.LBE154:
.LBB156:
.LBB157:
/APP
/  35 "include/kernel/portio.h" 1
	inb $32, %al
/  0 "" 2
/NO_APP
	movzbl	%al, %edx
.LVL52:
.LBE157:
.LBE156:
.LBE149:
.LBE148:
	.loc 1 113 0
	movl	%ecx, %eax
	sall	$8, %eax
	orl	%edx, %eax
	.loc 1 114 0
	ret
	.cfi_endproc
.LFE14:
	.size	_ZN3PIC6GetISREv, .-_ZN3PIC6GetISREv
	.section	.text.unlikely
.LCOLDE6:
	.text
.LHOTE6:
.Letext0:
	.section	.text.unlikely
.Letext_cold0:
	.file 3 "/home/pfalcato/i686-elf/lib/gcc/i686-elf/5.3.0/include/stdint-gcc.h"
	.file 4 "include/kernel/pic.h"