	.file	"vmm.cpp"
	.text
.Ltext0:
	.section	.text.unlikely,"ax",@progbits
.LCOLDB0:
	.text
.LHOTB0:
	.align 16
	.section	.text.unlikely
.Ltext_cold0:
	.text
	.type	_Z7kmunmapPvm.part.0, @function
_Z7kmunmapPvm.part.0:
.LFB28:
	.file 1 "arch/i386/vmm.cpp"
	.loc 1 183 0
	.cfi_startproc
.LVL0:
.LBB136:
.LBB137:
	.loc 1 84 0
	movl	_cur_directory, %ecx
.LBE137:
.LBE136:
	.loc 1 190 0
	testl	%ecx, %ecx
	je	.L20
	.loc 1 183 0
	pushl	%ebp
	.cfi_def_cfa_offset 8
	.cfi_offset 5, -8
	pushl	%edi
	.cfi_def_cfa_offset 12
	.cfi_offset 7, -12
	pushl	%esi
	.cfi_def_cfa_offset 16
	.cfi_offset 6, -16
	pushl	%ebx
	.cfi_def_cfa_offset 20
	.cfi_offset 3, -20
	.loc 1 192 0
	movl	%eax, %ebx
.LVL1:
	.loc 1 193 0
	shrl	$22, %eax
.LVL2:
	.loc 1 183 0
	subl	$28, %esp
	.cfi_def_cfa_offset 48
	.loc 1 193 0
	movl	(%ecx,%eax,4), %edi
	testl	$1, %edi
	je	.L1
	.loc 1 196 0
	movl	%ebx, %eax
	.loc 1 195 0
	andl	$2147479552, %edi
.LVL3:
	.loc 1 196 0
	shrl	$12, %eax
	andl	$1023, %eax
	movl	(%edi,%eax,4), %ecx
.LVL4:
	testb	$1, %cl
	je	.L1
.LVL5:
.LBB138:
	.loc 1 198 0
	testl	%edx, %edx
	je	.L1
	movl	%edx, 12(%esp)
	xorl	%ebp, %ebp
	jmp	.L5
.LVL6:
	.align 16
.L22:
	movl	%ebx, %eax
	shrl	$12, %eax
	andl	$1023, %eax
	movl	(%edi,%eax,4), %ecx
.LVL7:
.L5:
.LBB139:
	.loc 1 200 0
	movl	%ebx, %eax
.LBB140:
.LBB141:
	.loc 1 54 0
	movl	%ecx, %edx
.LBE141:
.LBE140:
	.loc 1 200 0
	shrl	$12, %eax
	andl	$1023, %eax
.LBB146:
.LBB144:
	.loc 1 54 0
	andl	$2147479552, %edx
.LBE144:
.LBE146:
	.loc 1 200 0
	movl	%eax, %esi
.LVL8:
.LBB147:
.LBB145:
	.loc 1 54 0
	je	.L4
	.loc 1 55 0
	subl	$8, %esp
	.cfi_def_cfa_offset 56
	pushl	%edx
	.cfi_def_cfa_offset 60
	pushl	$1
	.cfi_def_cfa_offset 64
	call	_Z5pfreemPv
.LVL9:
	movl	(%edi,%esi,4), %ecx
	addl	$16, %esp
	.cfi_def_cfa_offset 48
.L4:
.LVL10:
.LBB142:
.LBB143:
	.file 2 "include/kernel/vmm.h"
	.loc 2 89 0
	andl	$-2, %ecx
	movl	%ecx, (%edi,%esi,4)
.LVL11:
.LBE143:
.LBE142:
.LBE145:
.LBE147:
.LBB148:
.LBB149:
	.loc 2 146 0
/APP
/  146 "include/kernel/vmm.h" 1
	invlpg (%ebx)
/  0 "" 2
.LVL12:
/NO_APP
.LBE149:
.LBE148:
.LBE139:
	.loc 1 198 0
	addl	$1, %ebp
.LVL13:
	addl	$4096, %ebx
.LVL14:
	cmpl	%ebp, 12(%esp)
	jne	.L22
.LVL15:
.L1:
.LBE138:
	.loc 1 205 0
	addl	$28, %esp
	.cfi_def_cfa_offset 20
	popl	%ebx
	.cfi_restore 3
	.cfi_def_cfa_offset 16
	popl	%esi
	.cfi_restore 6
	.cfi_def_cfa_offset 12
	popl	%edi
	.cfi_restore 7
	.cfi_def_cfa_offset 8
	popl	%ebp
	.cfi_restore 5
	.cfi_def_cfa_offset 4
.L20:
	rep ret
	.cfi_endproc
.LFE28:
	.size	_Z7kmunmapPvm.part.0, .-_Z7kmunmapPvm.part.0
	.section	.text.unlikely
.LCOLDE0:
	.text
.LHOTE0:
	.section	.text.unlikely
.LCOLDB1:
	.text
.LHOTB1:
	.align 16
	.globl	_Z16switch_directoryPN3VMM10pdirectoryE
	.type	_Z16switch_directoryPN3VMM10pdirectoryE, @function
_Z16switch_directoryPN3VMM10pdirectoryE:
.LFB20:
	.loc 1 73 0
	.cfi_startproc
.LVL16:
	subl	$12, %esp
	.cfi_def_cfa_offset 16
	movl	$1, %eax
	.loc 1 73 0
	movl	16(%esp), %edx
	.loc 1 75 0
	testl	%edx, %edx
	je	.L24
	.loc 1 78 0
	subl	$12, %esp
	.cfi_def_cfa_offset 28
	.loc 1 77 0
	movl	%edx, _cur_directory
	.loc 1 78 0
	pushl	%edx
	.cfi_def_cfa_offset 32
	call	loadPageDirectory
.LVL17:
	.loc 1 79 0
	addl	$16, %esp
	.cfi_def_cfa_offset 16
	xorl	%eax, %eax
.L24:
	.loc 1 80 0
	addl	$12, %esp
	.cfi_def_cfa_offset 4
	ret
	.cfi_endproc
.LFE20:
	.size	_Z16switch_directoryPN3VMM10pdirectoryE, .-_Z16switch_directoryPN3VMM10pdirectoryE
	.section	.text.unlikely
.LCOLDE1:
	.text
.LHOTE1:
	.section	.text.unlikely
.LCOLDB2:
	.text
.LHOTB2:
	.align 16
	.globl	_Z13get_directoryv
	.type	_Z13get_directoryv, @function
_Z13get_directoryv:
.LFB21:
	.loc 1 82 0
	.cfi_startproc
.LVL18:
	.loc 1 86 0
	movl	_cur_directory, %eax
	ret
	.cfi_endproc
.LFE21:
	.size	_Z13get_directoryv, .-_Z13get_directoryv
	.section	.text.unlikely
.LCOLDE2:
	.text
.LHOTE2:
	.section	.text.unlikely
.LCOLDB3:
	.text
.LHOTB3:
	.align 16
	.globl	_ZN3VMM4InitEv
	.type	_ZN3VMM4InitEv, @function
_ZN3VMM4InitEv:
.LFB22:
	.loc 1 89 0
	.cfi_startproc
.LVL19:
	pushl	%edi
	.cfi_def_cfa_offset 8
	.cfi_offset 7, -8
	pushl	%ebx
	.cfi_def_cfa_offset 12
	.cfi_offset 3, -12
	.loc 1 91 0
	movl	$-2143354880, %ebx
	xorl	%eax, %eax
	movl	$1024, %ecx
	movl	%ebx, %edi
	.loc 1 89 0
	subl	$4, %esp
	.cfi_def_cfa_offset 16
	.loc 1 91 0
	rep stosl
.LVL20:
	.loc 1 93 0
	movl	$1024, %ecx
	rep stosl
.LVL21:
	.align 16
.L31:
.LBB150:
.LBB151:
	.loc 1 102 0 discriminator 2
	movl	%eax, %edx
	movl	%eax, %ecx
.LBE151:
	.loc 1 95 0 discriminator 2
	addl	$4096, %eax
.LVL22:
.LBB152:
	.loc 1 102 0 discriminator 2
	sarl	$12, %edx
.LVL23:
	orl	$5, %ecx
.LVL24:
.LBE152:
	.loc 1 95 0 discriminator 2
	cmpl	$4194304, %eax
.LBB153:
	.loc 1 102 0 discriminator 2
	movl	%ecx, -2143354880(,%edx,4)
.LVL25:
.LBE153:
	.loc 1 95 0 discriminator 2
	jne	.L31
	xorl	%eax, %eax
.LVL26:
	.align 16
.L32:
.LBE150:
.LBB154:
.LBB155:
	.loc 1 111 0 discriminator 2
	movl	%eax, %edx
	movl	%eax, %ecx
.LBE155:
	.loc 1 104 0 discriminator 2
	addl	$4096, %eax
.LVL27:
.LBB156:
	.loc 1 111 0 discriminator 2
	sall	$10, %edx
.LVL28:
	orl	$5, %ecx
.LVL29:
	shrl	$22, %edx
.LBE156:
	.loc 1 104 0 discriminator 2
	cmpl	$4194304, %eax
.LBB157:
	.loc 1 111 0 discriminator 2
	movl	%ecx, -2143350784(,%edx,4)
.LVL30:
.LBE157:
	.loc 1 104 0 discriminator 2
	jne	.L32
.LVL31:
.LBE154:
	.loc 1 114 0
	movl	$-2143346688, %edx
	xorl	%eax, %eax
.LVL32:
	movl	$1024, %ecx
	movl	%edx, %edi
.LBB158:
.LBB159:
	.loc 1 78 0
	subl	$12, %esp
	.cfi_def_cfa_offset 28
.LBE159:
.LBE158:
	.loc 1 114 0
	rep stosl
.LVL33:
.LBB161:
.LBB162:
	.loc 2 118 0
	movl	-2143344640, %eax
	andl	$-2147479553, %eax
	orl	$4128775, %eax
	movl	%eax, -2143344640
.LVL34:
.LBE162:
.LBE161:
.LBB163:
.LBB164:
	movl	-2143346688, %eax
	andl	$-2147479553, %eax
	orl	$4132871, %eax
	movl	%eax, -2143346688
.LVL35:
.LBE164:
.LBE163:
.LBB165:
.LBB166:
	movl	-2143342596, %eax
	andl	$-2147479553, %eax
	orl	$4136963, %eax
	movl	%eax, -2143342596
.LVL36:
.LBE166:
.LBE165:
.LBB167:
.LBB160:
	.loc 1 78 0
	pushl	$4136960
	.cfi_def_cfa_offset 32
	.loc 1 77 0
	movl	$4136960, _cur_directory
	.loc 1 78 0
	call	loadPageDirectory
.LVL37:
.LBE160:
.LBE167:
	.loc 1 133 0
	addl	$20, %esp
	.cfi_def_cfa_offset 12
	popl	%ebx
	.cfi_restore 3
	.cfi_def_cfa_offset 8
	popl	%edi
	.cfi_restore 7
	.cfi_def_cfa_offset 4
	ret
	.cfi_endproc
.LFE22:
	.size	_ZN3VMM4InitEv, .-_ZN3VMM4InitEv
	.section	.text.unlikely
.LCOLDE3:
	.text
.LHOTE3:
	.section	.rodata.str1.1,"aMS",@progbits,1
.LC4:
	.string	"No free blocks"
.LC5:
	.string	"Failed to map page 0x%X\n"
.LC6:
	.string	"No more physical memory"
	.section	.text.unlikely
.LCOLDB7:
	.text
.LHOTB7:
	.align 16
	.globl	_Z5kmmapmm
	.type	_Z5kmmapmm, @function
_Z5kmmapmm:
.LFB23:
	.loc 1 135 0
	.cfi_startproc
.LVL38:
	pushl	%ebp
	.cfi_def_cfa_offset 8
	.cfi_offset 5, -8
	pushl	%edi
	.cfi_def_cfa_offset 12
	.cfi_offset 7, -12
	pushl	%esi
	.cfi_def_cfa_offset 16
	.cfi_offset 6, -16
	pushl	%ebx
	.cfi_def_cfa_offset 20
	.cfi_offset 3, -20
	subl	$28, %esp
	.cfi_def_cfa_offset 48
	.loc 1 135 0
	movl	52(%esp), %eax
	.loc 1 136 0
	testl	%eax, %eax
	je	.L49
.LBB168:
.LBB169:
	.loc 1 84 0
	movl	_cur_directory, %edx
.LBE169:
.LBE168:
	.loc 1 139 0
	testl	%edx, %edx
	je	.L58
	cmpl	$1024, %eax
	movl	$1024, %esi
	cmovbe	%eax, %esi
	movl	48(%esp), %eax
	movl	%esi, 12(%esp)
.LVL39:
	shrl	$22, %eax
.LVL40:
	leal	(%edx,%eax,4), %ebp
	.loc 1 145 0
	movl	0(%ebp), %ebx
	testb	$-128, %bl
	jne	.L59
.L39:
.LBB170:
	.loc 1 148 0
	cmpl	$1024, 12(%esp)
	je	.L60
.LBE170:
	.loc 1 156 0
	movl	%ebx, %esi
.LVL41:
	andl	$1, %esi
	je	.L40
	.loc 1 157 0
	andl	$2147479552, %ebx
.LVL42:
.L41:
.LBB178:
	.loc 1 168 0
	movl	48(%esp), %ebp
.LVL43:
	xorl	%edi, %edi
	xorl	%esi, %esi
	jmp	.L45
.LVL44:
	.align 16
.L62:
.LBB179:
	.loc 1 178 0
	movl	%ebp, %ecx
	orl	$1, %eax
.LVL45:
.LBE179:
	.loc 1 168 0
	addl	$1, %edi
.LVL46:
.LBB182:
	.loc 1 178 0
	sarl	$12, %ecx
.LBE182:
	.loc 1 168 0
	addl	$4096, %ebp
.LVL47:
.LBB183:
	.loc 1 178 0
	andl	$1023, %ecx
.LBE183:
	.loc 1 168 0
	cmpl	12(%esp), %edi
.LBB184:
	.loc 1 178 0
	movl	%eax, (%ebx,%ecx,4)
.LVL48:
.LBE184:
	.loc 1 168 0
	je	.L61
.LVL49:
.L45:
.LBB185:
	.loc 1 170 0
	testl	%edi, %edi
	cmove	%ebp, %esi
.LVL50:
.LBB180:
.LBB181:
	.loc 1 43 0
	subl	$12, %esp
	.cfi_remember_state
	.cfi_def_cfa_offset 60
	pushl	$1
	.cfi_def_cfa_offset 64
	call	_Z7pmallocm
.LVL51:
	.loc 1 44 0
	addl	$16, %esp
	.cfi_def_cfa_offset 48
	testl	%eax, %eax
	jne	.L62
.LVL52:
.LBE181:
.LBE180:
	.loc 1 174 0
	subl	$8, %esp
	.cfi_def_cfa_offset 56
	pushl	%ebp
	.cfi_def_cfa_offset 60
	pushl	$.LC5
	.cfi_def_cfa_offset 64
	call	printf
.LVL53:
	.loc 1 175 0
	movl	$.LC6, (%esp)
	call	_Z5panicPKc
.LVL54:
	.align 16
.L61:
	.cfi_restore_state
	movl	%esi, %eax
.LVL55:
.L54:
.LBE185:
.LBE178:
	.loc 1 181 0
	addl	$28, %esp
	.cfi_remember_state
	.cfi_def_cfa_offset 20
	popl	%ebx
	.cfi_restore 3
	.cfi_def_cfa_offset 16
	popl	%esi
	.cfi_restore 6
	.cfi_def_cfa_offset 12
	popl	%edi
	.cfi_restore 7
	.cfi_def_cfa_offset 8
	popl	%ebp
	.cfi_restore 5
	.cfi_def_cfa_offset 4
	ret
.LVL56:
	.align 16
.L59:
	.cfi_restore_state
	.loc 1 145 0 discriminator 1
	testl	$2147479552, %ebx
	je	.L39
.LVL57:
.L49:
	.loc 1 181 0
	addl	$28, %esp
	.cfi_remember_state
	.cfi_def_cfa_offset 20
	.loc 1 137 0
	xorl	%eax, %eax
	.loc 1 181 0
	popl	%ebx
	.cfi_restore 3
	.cfi_def_cfa_offset 16
	popl	%esi
	.cfi_restore 6
	.cfi_def_cfa_offset 12
	popl	%edi
	.cfi_restore 7
	.cfi_def_cfa_offset 8
	popl	%ebp
	.cfi_restore 5
	.cfi_def_cfa_offset 4
	ret
.LVL58:
	.align 16
.L40:
	.cfi_restore_state
	.loc 1 159 0
	subl	$12, %esp
	.cfi_def_cfa_offset 60
	pushl	$1
	.cfi_def_cfa_offset 64
	call	_Z7pmallocm
.LVL59:
	.loc 1 160 0
	addl	$16, %esp
	.cfi_def_cfa_offset 48
	testl	%eax, %eax
	.loc 1 159 0
	movl	%eax, %ebx
.LVL60:
	.loc 1 160 0
	je	.L63
	.loc 1 162 0
	leal	4(%eax), %edi
	movl	%eax, %ecx
	movl	$0, (%eax)
.LVL61:
	movl	$0, 4092(%eax)
	movl	%esi, %eax
.LVL62:
	andl	$-4, %edi
	subl	%edi, %ecx
.LVL63:
	addl	$4096, %ecx
	shrl	$2, %ecx
	rep stosl
.LVL64:
.LBB186:
.LBB187:
	.loc 2 118 0
	movl	0(%ebp), %eax
	andl	$-2147479553, %eax
	orl	$3, %eax
	orl	%ebx, %eax
	movl	%eax, 0(%ebp)
	jmp	.L41
.LVL65:
.L60:
.LBE187:
.LBE186:
.LBB188:
.LBB171:
	.loc 1 152 0
	subl	$12, %esp
	.cfi_def_cfa_offset 60
.LBB172:
.LBB173:
	.loc 2 110 0
	orb	$-125, %bl
	movl	%ebx, 0(%ebp)
.LVL66:
.LBE173:
.LBE172:
	.loc 1 152 0
	pushl	$1024
	.cfi_def_cfa_offset 64
	call	_Z7pmallocm
.LVL67:
.LBB174:
.LBB175:
	.loc 2 118 0
	movl	0(%ebp), %edx
.LBE175:
.LBE174:
	.loc 1 154 0
	addl	$16, %esp
	.cfi_def_cfa_offset 48
.LBB177:
.LBB176:
	.loc 2 118 0
	andl	$-2147479553, %edx
	orl	%eax, %edx
	movl	%edx, 0(%ebp)
.LVL68:
.LBE176:
.LBE177:
	.loc 1 154 0
	jmp	.L54
.LVL69:
.L63:
.LBE171:
.LBE188:
	.loc 1 161 0
	subl	$12, %esp
	.cfi_remember_state
	.cfi_def_cfa_offset 60
	pushl	$.LC4
	.cfi_def_cfa_offset 64
	call	_Z5panicPKc
.LVL70:
.L58:
	.cfi_restore_state
	.loc 1 140 0
	call	abort
.LVL71:
	.cfi_endproc
.LFE23:
	.size	_Z5kmmapmm, .-_Z5kmmapmm
	.section	.text.unlikely
.LCOLDE7:
	.text
.LHOTE7:
	.section	.text.unlikely
.LCOLDB8:
	.text
.LHOTB8:
	.align 16
	.globl	_Z7kmunmapPvm
	.type	_Z7kmunmapPvm, @function
_Z7kmunmapPvm:
.LFB24:
	.loc 1 184 0
	.cfi_startproc
.LVL72:
	.loc 1 184 0
	movl	4(%esp), %eax
	movl	8(%esp), %edx
	.loc 1 187 0
	testl	%eax, %eax
	je	.L64
	testl	%edx, %edx
	je	.L64
	jmp	_Z7kmunmapPvm.part.0
.LVL73:
	.align 16
.L64:
	rep ret
	.cfi_endproc
.LFE24:
	.size	_Z7kmunmapPvm, .-_Z7kmunmapPvm
	.section	.text.unlikely
.LCOLDE8:
	.text
.LHOTE8:
	.section	.text.unlikely
.LCOLDB9:
	.text
.LHOTB9:
	.align 16
	.globl	_Z7vmallocm
	.type	_Z7vmallocm, @function
_Z7vmallocm:
.LFB25:
	.loc 1 207 0
	.cfi_startproc
.LVL74:
	pushl	%esi
	.cfi_def_cfa_offset 8
	.cfi_offset 6, -8
	pushl	%ebx
	.cfi_def_cfa_offset 12
	.cfi_offset 3, -12
	subl	$4, %esp
	.cfi_def_cfa_offset 16
	.loc 1 207 0
	movl	16(%esp), %esi
	.loc 1 208 0
	testl	%esi, %esi
	je	.L69
	.loc 1 210 0
	subl	$12, %esp
	.cfi_def_cfa_offset 28
	pushl	%esi
	.cfi_def_cfa_offset 32
	call	_Z7pmallocm
.LVL75:
	.loc 1 211 0
	addl	$16, %esp
	.cfi_def_cfa_offset 16
	testl	%eax, %eax
	.loc 1 210 0
	movl	%eax, %ebx
.LVL76:
	.loc 1 211 0
	je	.L69
	.loc 1 213 0
	subl	$8, %esp
	.cfi_def_cfa_offset 24
	pushl	%eax
	.cfi_def_cfa_offset 28
	pushl	%esi
	.cfi_def_cfa_offset 32
	call	_Z5pfreemPv
.LVL77:
	.loc 1 214 0
	popl	%eax
	.cfi_def_cfa_offset 28
	popl	%edx
	.cfi_def_cfa_offset 24
	pushl	%esi
	.cfi_def_cfa_offset 28
	pushl	%ebx
	.cfi_def_cfa_offset 32
	call	_Z5kmmapmm
.LVL78:
	addl	$16, %esp
	.cfi_def_cfa_offset 16
	testl	%eax, %eax
	je	.L69
	.loc 1 217 0
	addl	$4, %esp
	.cfi_remember_state
	.cfi_def_cfa_offset 12
	movl	%ebx, %eax
	popl	%ebx
	.cfi_restore 3
	.cfi_def_cfa_offset 8
.LVL79:
	popl	%esi
	.cfi_restore 6
	.cfi_def_cfa_offset 4
	ret
.LVL80:
	.align 16
.L69:
	.cfi_restore_state
	addl	$4, %esp
	.cfi_def_cfa_offset 12
	.loc 1 209 0
	xorl	%eax, %eax
	.loc 1 217 0
	popl	%ebx
	.cfi_restore 3
	.cfi_def_cfa_offset 8
	popl	%esi
	.cfi_restore 6
	.cfi_def_cfa_offset 4
	ret
	.cfi_endproc
.LFE25:
	.size	_Z7vmallocm, .-_Z7vmallocm
	.section	.text.unlikely
.LCOLDE9:
	.text
.LHOTE9:
	.section	.text.unlikely
.LCOLDB10:
	.text
.LHOTB10:
	.align 16
	.globl	_Z5vfreePvm
	.type	_Z5vfreePvm, @function
_Z5vfreePvm:
.LFB26:
	.loc 1 220 0
	.cfi_startproc
.LVL81:
	.loc 1 220 0
	movl	8(%esp), %edx
	movl	4(%esp), %eax
	.loc 1 223 0
	testl	%edx, %edx
	je	.L77
	testl	%eax, %eax
	je	.L77
.LVL82:
.LBB189:
.LBB190:
	jmp	_Z7kmunmapPvm.part.0
.LVL83:
	.align 16
.L77:
	rep ret
.LBE190:
.LBE189:
	.cfi_endproc
.LFE26:
	.size	_Z5vfreePvm, .-_Z5vfreePvm
	.section	.text.unlikely
.LCOLDE10:
	.text
.LHOTE10:
	.section	.text.unlikely
.LCOLDB11:
	.text
.LHOTB11:
	.align 16
	.globl	_Z10map_kernelv
	.type	_Z10map_kernelv, @function
_Z10map_kernelv:
.LFB27:
	.loc 1 229 0
	.cfi_startproc
	pushl	%ebx
	.cfi_def_cfa_offset 8
	.cfi_offset 3, -8
	subl	$20, %esp
	.cfi_def_cfa_offset 28
	.loc 1 230 0
	pushl	$1
	.cfi_def_cfa_offset 32
	call	_Z7vmallocm
.LVL84:
	addl	$16, %esp
	.cfi_def_cfa_offset 16
.LBB191:
	.loc 1 232 0
	xorl	%edx, %edx
.LVL85:
	.align 16
.L80:
.LBB192:
	.loc 1 237 0 discriminator 2
	movl	%edx, %ecx
	movl	%edx, %ebx
.LBE192:
	.loc 1 232 0 discriminator 2
	addl	$4096, %edx
.LVL86:
.LBB193:
	.loc 1 237 0 discriminator 2
	sall	$10, %ecx
.LVL87:
	orl	$1, %ebx
.LVL88:
	shrl	$22, %ecx
.LBE193:
	.loc 1 232 0 discriminator 2
	cmpl	$4194304, %edx
.LBB194:
	.loc 1 237 0 discriminator 2
	movl	%ebx, (%eax,%ecx,4)
.LVL89:
.LBE194:
	.loc 1 232 0 discriminator 2
	jne	.L80
.LBE191:
.LBB195:
.LBB196:
	.loc 1 84 0
	movl	_cur_directory, %ecx
.LBE196:
.LBE195:
	.loc 1 240 0
	testl	%ecx, %ecx
	je	.L84
.LVL90:
.LBB197:
.LBB198:
	.loc 2 110 0
	movl	2048(%ecx), %edx
.LVL91:
	andl	$-2147479553, %edx
	orl	$3, %edx
	orl	%edx, %eax
.LVL92:
	movl	%eax, 2048(%ecx)
.LVL93:
.LBE198:
.LBE197:
	.loc 1 246 0
	addl	$8, %esp
	.cfi_remember_state
	.cfi_def_cfa_offset 8
	popl	%ebx
	.cfi_restore 3
	.cfi_def_cfa_offset 4
	ret
.LVL94:
.L84:
	.cfi_restore_state
	.loc 1 241 0
	call	abort
.LVL95:
	.cfi_endproc
.LFE27:
	.size	_Z10map_kernelv, .-_Z10map_kernelv
	.section	.text.unlikely
.LCOLDE11:
	.text
.LHOTE11:
	.globl	_cur_directory
	.section	.bss
	.align 4
	.type	_cur_directory, @object
	.size	_cur_directory, 4
_cur_directory:
	.zero	4
	.text
.Letext0:
	.section	.text.unlikely
.Letext_cold0:
	.file 3 "/home/pfalcato/i686-elf/lib/gcc/i686-elf/5.3.0/include/stdint-gcc.h"
	.file 4 "include/kernel/pmm.h"
	.file 5 "/home/pfalcato/Spartix/sysroot/usr/include/stdio.h"
	.file 6 "include/kernel/panic.h"
	.file 7 "/home/pfalcato/Spartix/sysroot/usr/include/stdlib.h"